; Function Attrs: mustprogress nounwind uwtable
define hidden void @_ZN14PhaseIdealLoop13register_nodeEP4NodeP13IdealLoopTreeS1_j(ptr noundef nonnull align 8 dereferenceable(237) %0, ptr noundef %1, ptr noundef %2, ptr noundef %3, i32 noundef %4) local_unnamed_addr #0 align 2 {
  %6 = getelementptr inbounds i8, ptr %0, i64 56
  %7 = load ptr, ptr %6, align 8
  %8 = tail call noundef ptr @_ZN12PhaseIterGVN32register_new_node_with_optimizerEP4NodeS1_(ptr noundef nonnull align 8 dereferenceable(2416) %7, ptr noundef %1, ptr noundef null) #9
  %9 = getelementptr inbounds i8, ptr %2, i64 80
  %10 = load i32, ptr %9, align 8
  %11 = add i32 %10, 1
  store i32 %11, ptr %9, align 8
  %12 = getelementptr inbounds i8, ptr %2, i64 64
  %13 = load i32, ptr %12, align 8
  %.not.i.i = icmp ugt i32 %13, %10
  br i1 %.not.i.i, label %_ZN9Node_List4pushEP4Node.exit, label %14

14:                                               ; preds = %5
  %15 = getelementptr inbounds i8, ptr %2, i64 56
  tail call void @_ZN10Node_Array4growEj(ptr noundef nonnull align 8 dereferenceable(24) %15, i32 noundef %10) #9
  br label %_ZN9Node_List4pushEP4Node.exit

_ZN9Node_List4pushEP4Node.exit:                   ; preds = %5, %14
  %16 = getelementptr inbounds i8, ptr %2, i64 72
  %17 = load ptr, ptr %16, align 8
  %18 = zext i32 %10 to i64
  %19 = getelementptr inbounds ptr, ptr %17, i64 %18
  store ptr %1, ptr %19, align 8
  %20 = load ptr, ptr %1, align 8
  %21 = getelementptr inbounds i8, ptr %20, i64 16
  %22 = load ptr, ptr %21, align 8
  %23 = tail call noundef zeroext i1 %22(ptr noundef nonnull align 8 dereferenceable(52) %1) #9
  %24 = getelementptr inbounds i8, ptr %1, i64 40
  %25 = load i32, ptr %24, align 8
  %26 = getelementptr inbounds i8, ptr %0, i64 32
  %27 = load i32, ptr %26, align 8
  %.not.i.i11 = icmp ugt i32 %27, %25
  br i1 %23, label %28, label %35

28:                                               ; preds = %_ZN9Node_List4pushEP4Node.exit
  br i1 %.not.i.i11, label %_ZN14PhaseIdealLoop8set_loopEP4NodeP13IdealLoopTree.exit, label %29

29:                                               ; preds = %28
  %30 = getelementptr inbounds i8, ptr %0, i64 24
  tail call void @_ZN10Node_Array4growEj(ptr noundef nonnull align 8 dereferenceable(24) %30, i32 noundef %25) #9
  br label %_ZN14PhaseIdealLoop8set_loopEP4NodeP13IdealLoopTree.exit

_ZN14PhaseIdealLoop8set_loopEP4NodeP13IdealLoopTree.exit: ; preds = %28, %29
  %31 = getelementptr inbounds i8, ptr %0, i64 40
  %32 = load ptr, ptr %31, align 8
  %33 = zext i32 %25 to i64
  %34 = getelementptr inbounds ptr, ptr %32, i64 %33
  store ptr %2, ptr %34, align 8
  tail call void @_ZN14PhaseIdealLoop8set_idomEP4NodeS1_j(ptr noundef nonnull align 8 dereferenceable(237) %0, ptr noundef nonnull %1, ptr noundef %3, i32 noundef %4) #9
  br label %45

35:                                               ; preds = %_ZN9Node_List4pushEP4Node.exit
  br i1 %.not.i.i11, label %_ZN14PhaseIdealLoop8set_ctrlEP4NodeS1_.exit, label %36

36:                                               ; preds = %35
  %37 = getelementptr inbounds i8, ptr %0, i64 24
  tail call void @_ZN10Node_Array4growEj(ptr noundef nonnull align 8 dereferenceable(24) %37, i32 noundef %25) #9
  br label %_ZN14PhaseIdealLoop8set_ctrlEP4NodeS1_.exit

_ZN14PhaseIdealLoop8set_ctrlEP4NodeS1_.exit:      ; preds = %35, %36
  %38 = ptrtoint ptr %3 to i64
  %39 = add nsw i64 %38, 1
  %40 = inttoptr i64 %39 to ptr
  %41 = getelementptr inbounds i8, ptr %0, i64 40
  %42 = load ptr, ptr %41, align 8
  %43 = zext i32 %25 to i64
  %44 = getelementptr inbounds ptr, ptr %42, i64 %43
  store ptr %40, ptr %44, align 8
  br label %45

45:                                               ; preds = %_ZN14PhaseIdealLoop8set_ctrlEP4NodeS1_.exit, %_ZN14PhaseIdealLoop8set_loopEP4NodeP13IdealLoopTree.exit
  ret void
}